#include <math.h>
#include <stdio.h>
#include <stdlib.h>
#include <string.h>

int main(){
    int h, l;
    scanf("%d %d",&h, &l);
    int sz[h][l];
    for(int i=0;i<h;i++){
        for(int j=0;j<l;j++){
            scanf("%d",&sz[i][j]);
        }
    }
    int qs_h=0, qs_l=0;
    int zz_h=h-1, zz_l=l-1;
    while(qs_h<=zz_h&&qs_l<=zz_l){
        if(qs_h!=zz_h&&qs_l!=zz_l){
            for(int i=qs_l;i<=zz_l;i++){
                printf("%d\n",sz[qs_h][i]);
            }
            for(int i=qs_h+1;i<=zz_h;i++){
                printf("%d\n",sz[i][zz_l]);
            }
            for(int i=zz_l-1;i>=qs_l;i--){
                printf("%d\n",sz[zz_h][i]);
            }
            for(int i=zz_h-1;i>=qs_h+1;i--){
                printf("%d\n",sz[i][qs_l]);
            }
        }//???????
        if(qs_h==zz_h&&qs_l!=zz_l){
            if(h%2==1){
                for(int i=qs_l;i<=zz_l;i++){
                    printf("%d\n",sz[qs_h][i]);
                }
            }//???
            if(h%2==0){
                for(int i=zz_l;i>=qs_l;i--){
                    printf("%d\n",sz[qs_h][i]);
                }
            }//???
        }//????
        if(qs_h!=zz_h&&qs_l==zz_l){
            for(int i=qs_h;i<=zz_h;i++){
                printf("%d\n",sz[i][qs_l]);
            }
        }//????
        if(qs_h==zz_h&&qs_l==zz_l){
            printf("%d\n",sz[qs_h][zz_h]);
        }//????
        qs_h++;
        qs_l++;
        zz_l--;
        zz_h--;
    }
    return 0;
}

